target datalayout = "e-m:e-p270:32:32-p271:32:32-p272:64:64-i64:64-i128:128-f80:128-n8:16:32:64-S128"
target triple = "x86_64-pc-linux-gnu"

%struct.ident_t = type { i32, i32, i32, i32, ptr }
%"class.open3d::core::SmallVectorBase" = type { ptr, i32, i32 }
%"class.open3d::core::TensorIterator" = type { %"struct.open3d::core::TensorRef", i64 }
%"struct.open3d::core::TensorRef" = type { ptr, i64, i64, [5 x i64], [5 x i64] }
%"struct.std::_Vector_base" = type { %"struct.std::_Vector_base<long, std::allocator<long>>::_Vector_impl" }
%"struct.std::_Vector_base<long, std::allocator<long>>::_Vector_impl" = type { %"struct.std::_Vector_base<long, std::allocator<long>>::_Vector_impl_data" }
%"struct.std::_Vector_base<long, std::allocator<long>>::_Vector_impl_data" = type { ptr, ptr, ptr }

@1 = private unnamed_addr constant %struct.ident_t { i32 0, i32 514, i32 0, i32 22, ptr @0 }, align 8

; Function Attrs: mustprogress nounwind ssp uwtable
define linkonce_odr hidden noundef ptr @_ZN6open3d4core25SmallVectorTemplateCommonIlvE5beginEv(ptr noundef nonnull align 8 dereferenceable(16) %0) #4 comdat align 2 {
  %2 = alloca ptr, align 8
  store ptr %0, ptr %2, align 8, !tbaa !78
  %3 = load ptr, ptr %2, align 8
  %4 = getelementptr inbounds nuw %"class.open3d::core::SmallVectorBase", ptr %3, i32 0, i32 0
  %5 = load ptr, ptr %4, align 8, !tbaa !797
  ret ptr %5
}

; Function Attrs: mustprogress nounwind ssp uwtable
define linkonce_odr hidden noundef i64 @_ZNK6open3d4core14TensorIterator12NumWorkloadsEv(ptr noundef nonnull align 8 dereferenceable(112) %0) #4 comdat align 2 {
  %2 = alloca ptr, align 8
  %3 = alloca i64, align 8
  %4 = alloca i64, align 8
  store ptr %0, ptr %2, align 8, !tbaa !13
  %5 = load ptr, ptr %2, align 8
  call void @llvm.lifetime.start.p0(i64 8, ptr %3) #8
  store i64 1, ptr %3, align 8, !tbaa !9
  call void @llvm.lifetime.start.p0(i64 8, ptr %4) #8
  store i64 0, ptr %4, align 8, !tbaa !9
  br label %6

6:                                                ; preds = %20, %1
  %7 = load i64, ptr %4, align 8, !tbaa !9
  %8 = getelementptr inbounds nuw %"class.open3d::core::TensorIterator", ptr %5, i32 0, i32 1
  %9 = load i64, ptr %8, align 8, !tbaa !25
  %10 = icmp slt i64 %7, %9
  br i1 %10, label %12, label %11

11:                                               ; preds = %6
  call void @llvm.lifetime.end.p0(i64 8, ptr %4) #8
  br label %23

12:                                               ; preds = %6
  %13 = getelementptr inbounds nuw %"class.open3d::core::TensorIterator", ptr %5, i32 0, i32 0
  %14 = getelementptr inbounds nuw %"struct.open3d::core::TensorRef", ptr %13, i32 0, i32 3
  %15 = load i64, ptr %4, align 8, !tbaa !9
  %16 = getelementptr inbounds [5 x i64], ptr %14, i64 0, i64 %15
  %17 = load i64, ptr %16, align 8, !tbaa !9
  %18 = load i64, ptr %3, align 8, !tbaa !9
  %19 = mul nsw i64 %18, %17
  store i64 %19, ptr %3, align 8, !tbaa !9
  br label %20

20:                                               ; preds = %12
  %21 = load i64, ptr %4, align 8, !tbaa !9
  %22 = add nsw i64 %21, 1
  store i64 %22, ptr %4, align 8, !tbaa !9
  br label %6, !llvm.loop !971

23:                                               ; preds = %11
  %24 = load i64, ptr %3, align 8, !tbaa !9
  call void @llvm.lifetime.end.p0(i64 8, ptr %3) #8
  ret i64 %24
}

; Function Attrs: noinline noreturn nounwind ssp uwtable
define linkonce_odr hidden void @__clang_call_terminate(ptr noundef %0) #9 comdat {
  %2 = call ptr @__cxa_begin_catch(ptr %0) #8
  call void @_ZSt9terminatev() #29
  unreachable
}

; Function Attrs: mustprogress ssp uwtable
define linkonce_odr hidden noundef nonnull align 8 dereferenceable(8) ptr @_ZN6open3d4core25SmallVectorTemplateCommonIlvEixEm(ptr noundef nonnull align 8 dereferenceable(16) %0, i64 noundef %1) #0 comdat align 2 {
  %3 = alloca ptr, align 8
  %4 = alloca i64, align 8
  store ptr %0, ptr %3, align 8, !tbaa !78
  store i64 %1, ptr %4, align 8, !tbaa !9
  %5 = load ptr, ptr %3, align 8
  %6 = call noundef ptr @_ZN6open3d4core25SmallVectorTemplateCommonIlvE5beginEv(ptr noundef nonnull align 8 dereferenceable(16) %5)
  %7 = load i64, ptr %4, align 8, !tbaa !9
  %8 = getelementptr inbounds nuw i64, ptr %6, i64 %7
  ret ptr %8
}

; Function Attrs: mustprogress ssp uwtable
define linkonce_odr hidden noundef ptr @_ZNK6open3d4core14TensorIterator6GetPtrEl(ptr noundef nonnull align 8 dereferenceable(112) %0, i64 noundef %1) #0 comdat align 2 {
  %3 = alloca ptr, align 8
  %4 = alloca ptr, align 8
  %5 = alloca i64, align 8
  %6 = alloca i64, align 8
  %7 = alloca i64, align 8
  store ptr %0, ptr %4, align 8, !tbaa !13
  store i64 %1, ptr %5, align 8, !tbaa !9
  %8 = load ptr, ptr %4, align 8
  %9 = load i64, ptr %5, align 8, !tbaa !9
  %10 = icmp slt i64 %9, 0
  br i1 %10, label %15, label %11

11:                                               ; preds = %2
  %12 = load i64, ptr %5, align 8, !tbaa !9
  %13 = call noundef i64 @_ZNK6open3d4core14TensorIterator12NumWorkloadsEv(ptr noundef nonnull align 8 dereferenceable(112) %8)
  %14 = icmp sge i64 %12, %13
  br i1 %14, label %15, label %16

15:                                               ; preds = %11, %2
  store ptr null, ptr %3, align 8
  br label %60

16:                                               ; preds = %11
  call void @llvm.lifetime.start.p0(i64 8, ptr %6) #8
  store i64 0, ptr %6, align 8, !tbaa !9
  %17 = load i64, ptr %5, align 8, !tbaa !9
  %18 = getelementptr inbounds nuw %"class.open3d::core::TensorIterator", ptr %8, i32 0, i32 0
  %19 = getelementptr inbounds nuw %"struct.open3d::core::TensorRef", ptr %18, i32 0, i32 2
  %20 = load i64, ptr %19, align 8, !tbaa !75
  %21 = mul nsw i64 %17, %20
  store i64 %21, ptr %5, align 8, !tbaa !9
  call void @llvm.lifetime.start.p0(i64 8, ptr %7) #8
  store i64 0, ptr %7, align 8, !tbaa !9
  br label %22

22:                                               ; preds = %51, %16
  %23 = load i64, ptr %7, align 8, !tbaa !9
  %24 = getelementptr inbounds nuw %"class.open3d::core::TensorIterator", ptr %8, i32 0, i32 1
  %25 = load i64, ptr %24, align 8, !tbaa !25
  %26 = icmp slt i64 %23, %25
  br i1 %26, label %28, label %27

27:                                               ; preds = %22
  call void @llvm.lifetime.end.p0(i64 8, ptr %7) #8
  br label %54

28:                                               ; preds = %22
  %29 = load i64, ptr %5, align 8, !tbaa !9
  %30 = getelementptr inbounds nuw %"class.open3d::core::TensorIterator", ptr %8, i32 0, i32 0
  %31 = getelementptr inbounds nuw %"struct.open3d::core::TensorRef", ptr %30, i32 0, i32 4
  %32 = load i64, ptr %7, align 8, !tbaa !9
  %33 = getelementptr inbounds [5 x i64], ptr %31, i64 0, i64 %32
  %34 = load i64, ptr %33, align 8, !tbaa !9
  %35 = sdiv i64 %29, %34
  %36 = getelementptr inbounds nuw %"class.open3d::core::TensorIterator", ptr %8, i32 0, i32 0
  %37 = getelementptr inbounds nuw %"struct.open3d::core::TensorRef", ptr %36, i32 0, i32 4
  %38 = load i64, ptr %7, align 8, !tbaa !9
  %39 = getelementptr inbounds [5 x i64], ptr %37, i64 0, i64 %38
  %40 = load i64, ptr %39, align 8, !tbaa !9
  %41 = mul nsw i64 %35, %40
  %42 = load i64, ptr %6, align 8, !tbaa !9
  %43 = add nsw i64 %42, %41
  store i64 %43, ptr %6, align 8, !tbaa !9
  %44 = load i64, ptr %5, align 8, !tbaa !9
  %45 = getelementptr inbounds nuw %"class.open3d::core::TensorIterator", ptr %8, i32 0, i32 0
  %46 = getelementptr inbounds nuw %"struct.open3d::core::TensorRef", ptr %45, i32 0, i32 4
  %47 = load i64, ptr %7, align 8, !tbaa !9
  %48 = getelementptr inbounds [5 x i64], ptr %46, i64 0, i64 %47
  %49 = load i64, ptr %48, align 8, !tbaa !9
  %50 = srem i64 %44, %49
  store i64 %50, ptr %5, align 8, !tbaa !9
  br label %51

51:                                               ; preds = %28
  %52 = load i64, ptr %7, align 8, !tbaa !9
  %53 = add nsw i64 %52, 1
  store i64 %53, ptr %7, align 8, !tbaa !9
  br label %22, !llvm.loop !76

54:                                               ; preds = %27
  %55 = getelementptr inbounds nuw %"class.open3d::core::TensorIterator", ptr %8, i32 0, i32 0
  %56 = getelementptr inbounds nuw %"struct.open3d::core::TensorRef", ptr %55, i32 0, i32 0
  %57 = load ptr, ptr %56, align 8, !tbaa !77
  %58 = load i64, ptr %6, align 8, !tbaa !9
  %59 = getelementptr inbounds i8, ptr %57, i64 %58
  store ptr %59, ptr %3, align 8
  call void @llvm.lifetime.end.p0(i64 8, ptr %6) #8
  br label %60

60:                                               ; preds = %54, %15
  %61 = load ptr, ptr %3, align 8
  ret ptr %61
}

; Function Attrs: mustprogress nounwind ssp uwtable
define linkonce_odr noundef nonnull align 8 dereferenceable(8) ptr @_ZNSt6vectorIlSaIlEEixEm(ptr noundef nonnull align 8 dereferenceable(24) %0, i64 noundef %1) #4 comdat align 2 {
  %3 = alloca ptr, align 8
  %4 = alloca i64, align 8
  store ptr %0, ptr %3, align 8, !tbaa !11
  store i64 %1, ptr %4, align 8, !tbaa !9
  %5 = load ptr, ptr %3, align 8
  %6 = getelementptr inbounds nuw %"struct.std::_Vector_base", ptr %5, i32 0, i32 0
  %7 = getelementptr inbounds nuw %"struct.std::_Vector_base<long, std::allocator<long>>::_Vector_impl_data", ptr %6, i32 0, i32 0
  %8 = load ptr, ptr %7, align 8, !tbaa !44
  %9 = load i64, ptr %4, align 8, !tbaa !9
  %10 = getelementptr inbounds nuw i64, ptr %8, i64 %9
  ret ptr %10
}

; Function Attrs: alwaysinline norecurse nounwind ssp uwtable
define internal void @_ZN6open3d4core6kernel10NonZeroCPUERKNS0_6TensorE.omp_outlined(ptr noalias noundef %0, ptr noalias noundef %1, ptr noundef nonnull align 8 dereferenceable(8) %2, ptr noundef nonnull align 8 dereferenceable(24) %3, ptr noundef nonnull align 8 dereferenceable(8) %4, ptr noundef nonnull align 8 dereferenceable(112) %5, ptr noundef nonnull align 8 dereferenceable(48) %6) #7 personality ptr @__gxx_personality_v0 {
  %8 = alloca ptr, align 8
  %9 = alloca ptr, align 8
  %10 = alloca ptr, align 8
  %11 = alloca ptr, align 8
  %12 = alloca ptr, align 8
  %13 = alloca ptr, align 8
  %14 = alloca ptr, align 8
  %15 = alloca i64, align 8
  %16 = alloca i64, align 8
  %17 = alloca i64, align 8
  %18 = alloca i64, align 8
  %19 = alloca i64, align 8
  %20 = alloca i64, align 8
  %21 = alloca i64, align 8
  %22 = alloca i32, align 4
  %23 = alloca i64, align 8
  %24 = alloca i64, align 8
  %25 = alloca i64, align 8
  %26 = alloca ptr, align 8
  store ptr %0, ptr %8, align 8, !tbaa !72
  store ptr %1, ptr %9, align 8, !tbaa !72
  store ptr %2, ptr %10, align 8, !tbaa !65
  store ptr %3, ptr %11, align 8, !tbaa !11
  store ptr %4, ptr %12, align 8, !tbaa !65
  store ptr %5, ptr %13, align 8, !tbaa !13
  store ptr %6, ptr %14, align 8, !tbaa !45
  %27 = load ptr, ptr %10, align 8, !tbaa !65
  %28 = load ptr, ptr %11, align 8, !tbaa !11
  %29 = load ptr, ptr %12, align 8, !tbaa !65
  %30 = load ptr, ptr %13, align 8, !tbaa !13
  %31 = load ptr, ptr %14, align 8, !tbaa !45
  call void @llvm.lifetime.start.p0(i64 8, ptr %15) #8
  call void @llvm.lifetime.start.p0(i64 8, ptr %16) #8
  %32 = load i64, ptr %27, align 8, !tbaa !9
  store i64 %32, ptr %16, align 8, !tbaa !9
  call void @llvm.lifetime.start.p0(i64 8, ptr %17) #8
  %33 = load i64, ptr %16, align 8, !tbaa !9
  %34 = sub nsw i64 %33, 0
  %35 = sdiv i64 %34, 1
  %36 = sub nsw i64 %35, 1
  store i64 %36, ptr %17, align 8, !tbaa !9
  call void @llvm.lifetime.start.p0(i64 8, ptr %18) #8
  store i64 0, ptr %18, align 8, !tbaa !9
  call void @llvm.lifetime.end.p0(i64 8, ptr %18) #8
  %37 = load i64, ptr %16, align 8, !tbaa !9
  %38 = icmp slt i64 0, %37
  br i1 %38, label %39, label %104

39:                                               ; preds = %7
  call void @llvm.lifetime.start.p0(i64 8, ptr %19) #8
  store i64 0, ptr %19, align 8, !tbaa !9
  call void @llvm.lifetime.start.p0(i64 8, ptr %20) #8
  %40 = load i64, ptr %17, align 8, !tbaa !9
  store i64 %40, ptr %20, align 8, !tbaa !9
  call void @llvm.lifetime.start.p0(i64 8, ptr %21) #8
  store i64 1, ptr %21, align 8, !tbaa !9
  call void @llvm.lifetime.start.p0(i64 4, ptr %22) #8
  store i32 0, ptr %22, align 4, !tbaa !32
  call void @llvm.lifetime.start.p0(i64 8, ptr %23) #8
  %41 = load ptr, ptr %8, align 8
  %42 = load i32, ptr %41, align 4, !tbaa !32
  call void @__kmpc_for_static_init_8(ptr @1, i32 %42, i32 34, ptr %22, ptr %19, ptr %20, ptr %21, i64 1, i64 1)
  %43 = load i64, ptr %20, align 8, !tbaa !9
  %44 = load i64, ptr %17, align 8, !tbaa !9
  %45 = icmp sgt i64 %43, %44
  br i1 %45, label %46, label %48

46:                                               ; preds = %39
  %47 = load i64, ptr %17, align 8, !tbaa !9
  br label %50

48:                                               ; preds = %39
  %49 = load i64, ptr %20, align 8, !tbaa !9
  br label %50

50:                                               ; preds = %48, %46
  %51 = phi i64 [ %47, %46 ], [ %49, %48 ]
  store i64 %51, ptr %20, align 8, !tbaa !9
  %52 = load i64, ptr %19, align 8, !tbaa !9
  store i64 %52, ptr %15, align 8, !tbaa !9
  br label %53

53:                                               ; preds = %97, %50
  %54 = load i64, ptr %15, align 8, !tbaa !9
  %55 = load i64, ptr %20, align 8, !tbaa !9
  %56 = icmp sle i64 %54, %55
  br i1 %56, label %58, label %57

57:                                               ; preds = %53
  br label %100

58:                                               ; preds = %53
  %59 = load i64, ptr %15, align 8, !tbaa !9
  %60 = mul nsw i64 %59, 1
  %61 = add nsw i64 0, %60
  store i64 %61, ptr %23, align 8, !tbaa !9
  call void @llvm.lifetime.start.p0(i64 8, ptr %24) #8
  %62 = load i64, ptr %23, align 8, !tbaa !9
  %63 = call noundef nonnull align 8 dereferenceable(8) ptr @_ZNSt6vectorIlSaIlEEixEm(ptr noundef nonnull align 8 dereferenceable(24) %28, i64 noundef %62) #8
  %64 = load i64, ptr %63, align 8, !tbaa !9
  store i64 %64, ptr %24, align 8, !tbaa !9
  call void @llvm.lifetime.start.p0(i64 8, ptr %25) #8
  %65 = load i64, ptr %29, align 8, !tbaa !9
  %66 = sub nsw i64 %65, 1
  store i64 %66, ptr %25, align 8, !tbaa !9
  br label %67

67:                                               ; preds = %92, %58
  %68 = load i64, ptr %25, align 8, !tbaa !9
  %69 = icmp sge i64 %68, 0
  br i1 %69, label %71, label %70

70:                                               ; preds = %67
  call void @llvm.lifetime.end.p0(i64 8, ptr %25) #8
  br label %95

71:                                               ; preds = %67
  call void @llvm.lifetime.start.p0(i64 8, ptr %26) #8
  %72 = load i64, ptr %25, align 8, !tbaa !9
  %73 = load i64, ptr %27, align 8, !tbaa !9
  %74 = mul i64 %72, %73
  %75 = load i64, ptr %23, align 8, !tbaa !9
  %76 = add i64 %74, %75
  %77 = invoke noundef ptr @_ZNK6open3d4core14TensorIterator6GetPtrEl(ptr noundef nonnull align 8 dereferenceable(112) %30, i64 noundef %76)
          to label %78 unwind label %105

78:                                               ; preds = %71
  store ptr %77, ptr %26, align 8, !tbaa !36
  %79 = load i64, ptr %24, align 8, !tbaa !9
  %80 = load i64, ptr %25, align 8, !tbaa !9
  %81 = invoke noundef nonnull align 8 dereferenceable(8) ptr @_ZN6open3d4core25SmallVectorTemplateCommonIlvEixEm(ptr noundef nonnull align 8 dereferenceable(16) %31, i64 noundef %80)
          to label %82 unwind label %105

82:                                               ; preds = %78
  %83 = load i64, ptr %81, align 8, !tbaa !9
  %84 = srem i64 %79, %83
  %85 = load ptr, ptr %26, align 8, !tbaa !36
  store i64 %84, ptr %85, align 8, !tbaa !9
  %86 = load i64, ptr %24, align 8, !tbaa !9
  %87 = load i64, ptr %25, align 8, !tbaa !9
  %88 = invoke noundef nonnull align 8 dereferenceable(8) ptr @_ZN6open3d4core25SmallVectorTemplateCommonIlvEixEm(ptr noundef nonnull align 8 dereferenceable(16) %31, i64 noundef %87)
          to label %89 unwind label %105

89:                                               ; preds = %82
  %90 = load i64, ptr %88, align 8, !tbaa !9
  %91 = sdiv i64 %86, %90
  store i64 %91, ptr %24, align 8, !tbaa !9
  call void @llvm.lifetime.end.p0(i64 8, ptr %26) #8
  br label %92

92:                                               ; preds = %89
  %93 = load i64, ptr %25, align 8, !tbaa !9
  %94 = add nsw i64 %93, -1
  store i64 %94, ptr %25, align 8, !tbaa !9
  br label %67, !llvm.loop !74

95:                                               ; preds = %70
  call void @llvm.lifetime.end.p0(i64 8, ptr %24) #8
  br label %96

96:                                               ; preds = %95
  br label %97

97:                                               ; preds = %96
  %98 = load i64, ptr %15, align 8, !tbaa !9
  %99 = add nsw i64 %98, 1
  store i64 %99, ptr %15, align 8, !tbaa !9
  br label %53

100:                                              ; preds = %57
  br label %101

101:                                              ; preds = %100
  %102 = load ptr, ptr %8, align 8
  %103 = load i32, ptr %102, align 4, !tbaa !32
  call void @__kmpc_for_static_fini(ptr @1, i32 %103)
  call void @llvm.lifetime.end.p0(i64 8, ptr %23) #8
  call void @llvm.lifetime.end.p0(i64 4, ptr %22) #8
  call void @llvm.lifetime.end.p0(i64 8, ptr %21) #8
  call void @llvm.lifetime.end.p0(i64 8, ptr %20) #8
  call void @llvm.lifetime.end.p0(i64 8, ptr %19) #8
  br label %104

104:                                              ; preds = %101, %7
  call void @llvm.lifetime.end.p0(i64 8, ptr %17) #8
  call void @llvm.lifetime.end.p0(i64 8, ptr %16) #8
  call void @llvm.lifetime.end.p0(i64 8, ptr %15) #8
  ret void

105:                                              ; preds = %82, %78, %71
  %106 = landingpad { ptr, i32 }
          catch ptr null
  %107 = extractvalue { ptr, i32 } %106, 0
  call void @__clang_call_terminate(ptr %107) #29
  unreachable
}