; Function Attrs: alwaysinline norecurse nounwind ssp uwtable
define internal void @_ZN6open3d4core6kernel10NonZeroCPUERKNS0_6TensorE.omp_outlined(ptr noalias noundef readonly captures(none) %0, ptr noalias readnone captures(none) %1, ptr noundef nonnull readonly align 8 captures(none) dereferenceable(8) %2, ptr noundef nonnull readonly align 8 captures(none) dereferenceable(24) %3, ptr noundef nonnull readonly align 8 captures(none) dereferenceable(8) %4, ptr noundef nonnull readonly align 8 captures(none) dereferenceable(112) %5, ptr noundef nonnull readonly align 8 captures(none) dereferenceable(48) %6) #4 personality ptr @__gxx_personality_v0 {
  %8 = alloca i64, align 8
  %9 = alloca i64, align 8
  %10 = alloca i64, align 8
  %11 = alloca i32, align 4
  %12 = load i64, ptr %2, align 8, !tbaa !11
  %13 = icmp sgt i64 %12, 0
  br i1 %13, label %14, label %62

14:                                               ; preds = %7
  %15 = add nsw i64 %12, -1
  call void @llvm.lifetime.start.p0(i64 8, ptr nonnull %8) #5
  store i64 0, ptr %8, align 8, !tbaa !11
  call void @llvm.lifetime.start.p0(i64 8, ptr nonnull %9) #5
  store i64 %15, ptr %9, align 8, !tbaa !11
  call void @llvm.lifetime.start.p0(i64 8, ptr nonnull %10) #5
  store i64 1, ptr %10, align 8, !tbaa !11
  call void @llvm.lifetime.start.p0(i64 4, ptr nonnull %11) #5
  store i32 0, ptr %11, align 4, !tbaa !43
  %16 = load i32, ptr %0, align 4, !tbaa !43
  call void @__kmpc_for_static_init_8(ptr nonnull @1, i32 %16, i32 34, ptr nonnull %11, ptr nonnull %8, ptr nonnull %9, ptr nonnull %10, i64 1, i64 1)
  %17 = load i64, ptr %9, align 8, !tbaa !11
  %18 = call i64 @llvm.smin.i64(i64 %17, i64 %15)
  store i64 %18, ptr %9, align 8, !tbaa !11
  %19 = load i64, ptr %8, align 8, !tbaa !11
  %.not30 = icmp sgt i64 %19, %18
  br i1 %.not30, label %._crit_edge34, label %.lr.ph33

.lr.ph33:                                         ; preds = %14
  %20 = load ptr, ptr %3, align 8, !tbaa !4
  %21 = getelementptr inbounds nuw i8, ptr %5, i64 104
  %22 = getelementptr inbounds nuw i8, ptr %5, i64 24
  %23 = getelementptr inbounds nuw i8, ptr %5, i64 16
  %24 = getelementptr inbounds nuw i8, ptr %5, i64 64
  %25 = load ptr, ptr %5, align 8
  %26 = load ptr, ptr %6, align 8
  %27 = load i64, ptr %4, align 8, !tbaa !11
  %28 = icmp sgt i64 %27, 0
  br i1 %28, label %.lr.ph33.split, label %._crit_edge34

.lr.ph33.splitthread-pre-split:                   ; preds = %._crit_edge
  %29 = add nsw i64 %.031, 1
  %.pr = load i64, ptr %4, align 8, !tbaa !11
  br label %.lr.ph33.split

.lr.ph33.split:                                   ; preds = %.lr.ph33, %.lr.ph33.splitthread-pre-split
  %30 = phi i64 [ %.pr, %.lr.ph33.splitthread-pre-split ], [ %27, %.lr.ph33 ]
  %31 = phi i64 [ %35, %.lr.ph33.splitthread-pre-split ], [ %18, %.lr.ph33 ]
  %.031 = phi i64 [ %29, %.lr.ph33.splitthread-pre-split ], [ %19, %.lr.ph33 ]
  %32 = icmp sgt i64 %30, 0
  br i1 %32, label %.lr.ph.preheader, label %._crit_edge

.lr.ph.preheader:                                 ; preds = %.lr.ph33.split
  %33 = getelementptr inbounds nuw i64, ptr %20, i64 %.031
  %34 = load i64, ptr %33, align 8, !tbaa !11
  br label %.lr.ph

._crit_edge.loopexit:                             ; preds = %._crit_edge.i
  %.pre = load i64, ptr %9, align 8, !tbaa !11
  br label %._crit_edge

._crit_edge:                                      ; preds = %._crit_edge.loopexit, %.lr.ph33.split
  %35 = phi i64 [ %.pre, %._crit_edge.loopexit ], [ %31, %.lr.ph33.split ]
  %.not.not = icmp slt i64 %.031, %35
  br i1 %.not.not, label %.lr.ph33.splitthread-pre-split, label %._crit_edge34, !llvm.loop !98

.lr.ph:                                           ; preds = %.lr.ph.preheader, %._crit_edge.i
  %.02429.in = phi i64 [ %.02429, %._crit_edge.i ], [ %30, %.lr.ph.preheader ]
  %.02528 = phi i64 [ %53, %._crit_edge.i ], [ %34, %.lr.ph.preheader ]
  %.02429 = add nsw i64 %.02429.in, -1
  %36 = load i64, ptr %2, align 8, !tbaa !11
  %37 = mul i64 %36, %.02429
  %38 = add i64 %37, %.031
  %39 = icmp sgt i64 %38, -1
  call void @llvm.assume(i1 %39)
  %40 = load i64, ptr %21, align 8, !tbaa !24
  %41 = icmp sgt i64 %40, 0
  br i1 %41, label %.lr.ph.i.i, label %_ZNK6open3d4core14TensorIterator12NumWorkloadsEv.exit.thread.i

.lr.ph.i.i:                                       ; preds = %.lr.ph, %.lr.ph.i.i
  %.07.i.i = phi i64 [ %45, %.lr.ph.i.i ], [ 0, %.lr.ph ]
  %.056.i.i = phi i64 [ %44, %.lr.ph.i.i ], [ 1, %.lr.ph ]
  %42 = getelementptr inbounds nuw [5 x i64], ptr %22, i64 0, i64 %.07.i.i
  %43 = load i64, ptr %42, align 8, !tbaa !11
  %44 = mul nsw i64 %43, %.056.i.i
  %45 = add nuw nsw i64 %.07.i.i, 1
  %exitcond.not.i.i = icmp eq i64 %45, %40
  br i1 %exitcond.not.i.i, label %_ZNK6open3d4core14TensorIterator12NumWorkloadsEv.exit.i, label %.lr.ph.i.i, !llvm.loop !25

_ZNK6open3d4core14TensorIterator12NumWorkloadsEv.exit.i: ; preds = %.lr.ph.i.i
  %.not.i = icmp slt i64 %38, %44
  call void @llvm.assume(i1 %.not.i)
  %46 = load i64, ptr %23, align 8, !tbaa !26
  %47 = mul nsw i64 %46, %38
  br label %55

_ZNK6open3d4core14TensorIterator12NumWorkloadsEv.exit.thread.i: ; preds = %.lr.ph
  %.not22.i = icmp eq i64 %38, 0
  call void @llvm.assume(i1 %.not22.i)
  br label %._crit_edge.i

._crit_edge.i:                                    ; preds = %55, %_ZNK6open3d4core14TensorIterator12NumWorkloadsEv.exit.thread.i
  %.013.lcssa.i = phi i64 [ 0, %_ZNK6open3d4core14TensorIterator12NumWorkloadsEv.exit.thread.i ], [ %60, %55 ]
  %48 = getelementptr inbounds i8, ptr %25, i64 %.013.lcssa.i
  %49 = getelementptr inbounds nuw i64, ptr %26, i64 %.02429
  %50 = load i64, ptr %49, align 8, !tbaa !11
  %51 = srem i64 %.02528, %50
  store i64 %51, ptr %48, align 8, !tbaa !11
  %52 = load i64, ptr %49, align 8, !tbaa !11
  %53 = sdiv i64 %.02528, %52
  %54 = icmp samesign ugt i64 %.02429.in, 1
  br i1 %54, label %.lr.ph, label %._crit_edge.loopexit, !llvm.loop !100

55:                                               ; preds = %55, %_ZNK6open3d4core14TensorIterator12NumWorkloadsEv.exit.i
  %.019.i = phi i64 [ 0, %_ZNK6open3d4core14TensorIterator12NumWorkloadsEv.exit.i ], [ %61, %55 ]
  %.01318.i = phi i64 [ 0, %_ZNK6open3d4core14TensorIterator12NumWorkloadsEv.exit.i ], [ %60, %55 ]
  %.01417.i = phi i64 [ %47, %_ZNK6open3d4core14TensorIterator12NumWorkloadsEv.exit.i ], [ %58, %55 ]
  %.014.fr.i = freeze i64 %.01417.i
  %56 = getelementptr inbounds nuw [5 x i64], ptr %24, i64 0, i64 %.019.i
  %57 = load i64, ptr %56, align 8, !tbaa !11
  %58 = srem i64 %.014.fr.i, %57
  %59 = add i64 %.014.fr.i, %.01318.i
  %60 = sub i64 %59, %58
  %61 = add nuw nsw i64 %.019.i, 1
  %exitcond.not.i = icmp eq i64 %61, %40
  br i1 %exitcond.not.i, label %._crit_edge.i, label %55, !llvm.loop !27

._crit_edge34:                                    ; preds = %._crit_edge, %.lr.ph33, %14
  call void @__kmpc_for_static_fini(ptr nonnull @1, i32 %16)
  call void @llvm.lifetime.end.p0(i64 4, ptr nonnull %11) #5
  call void @llvm.lifetime.end.p0(i64 8, ptr nonnull %10) #5
  call void @llvm.lifetime.end.p0(i64 8, ptr nonnull %9) #5
  call void @llvm.lifetime.end.p0(i64 8, ptr nonnull %8) #5
  br label %62

62:                                               ; preds = %._crit_edge34, %7
  ret void
}